; Function Attrs: null_pointer_is_valid sspstrong uwtable
define internal noundef zeroext i16 @de_sm_wlan_offload_accept(ptr noundef %0, ptr noundef %1, ptr readnone captures(none) %2, i32 noundef %3, i32 noundef %4, ptr readnone captures(none) %5, i32 %6) #1 {
  %8 = load i32, ptr @hf_gsm_a_spare_bits, align 4
  %9 = shl i32 %3, 3
  %10 = or disjoint i32 %9, 4
  %11 = tail call ptr @proto_tree_add_bits_item(ptr noundef %1, i32 noundef %8, ptr noundef %0, i32 noundef %10, i32 noundef 2, i32 noundef 0)
  %12 = load i32, ptr @hf_gsm_a_sm_wlan_utran_offload_accept, align 4
  %13 = or disjoint i32 %9, 6
  %14 = tail call ptr @proto_tree_add_bits_item(ptr noundef %1, i32 noundef %12, ptr noundef %0, i32 noundef %13, i32 noundef 1, i32 noundef 0)
  %15 = load i32, ptr @hf_gsm_a_sm_wlan_eutran_offload_accept, align 4
  %16 = or disjoint i32 %9, 7
  %17 = tail call ptr @proto_tree_add_bits_item(ptr noundef %1, i32 noundef %15, ptr noundef %0, i32 noundef %16, i32 noundef 1, i32 noundef 0)
  %18 = trunc i32 %4 to i16
  ret i16 %18
}